target datalayout = "e-m:e-p270:32:32-p271:32:32-p272:64:64-i64:64-i128:128-f80:128-n8:16:32:64-S128"
target triple = "x86_64-pc-linux-gnu"

%struct.jpeg_decompress_struct = type { ptr, ptr, ptr, ptr, i32, i32, ptr, i32, i32, i32, i32, i32, i32, i32, double, i32, i32, i32, i32, i32, i32, i32, i32, i32, i32, i32, i32, i32, i32, i32, i32, i32, i32, ptr, i32, i32, i32, i32, i32, ptr, [4 x ptr], [4 x ptr], [4 x ptr], i32, ptr, i32, i32, [16 x i8], [16 x i8], [16 x i8], i32, i32, i8, i8, i8, i16, i16, i32, i8, i32, ptr, i32, i32, i32, i32, ptr, i32, [4 x ptr], i32, i32, i32, [10 x i32], i32, i32, i32, i32, i32, ptr, ptr, ptr, ptr, ptr, ptr, ptr, ptr, ptr, ptr, ptr }
%struct.jpeg_component_info = type { i32, i32, i32, i32, i32, i32, i32, i32, i32, i32, i32, i32, i32, i32, i32, i32, i32, i32, i32, ptr, ptr }

; Function Attrs: nounwind uwtable
define void @jpeg_idct_3x3(ptr noundef %0, ptr noundef %1, ptr noundef %2, ptr noundef %3, i32 noundef %4) #0 {
  %6 = alloca ptr, align 8
  %7 = alloca ptr, align 8
  %8 = alloca ptr, align 8
  %9 = alloca ptr, align 8
  %10 = alloca i32, align 4
  %11 = alloca i64, align 8
  %12 = alloca i64, align 8
  %13 = alloca i64, align 8
  %14 = alloca i64, align 8
  %15 = alloca ptr, align 8
  %16 = alloca ptr, align 8
  %17 = alloca ptr, align 8
  %18 = alloca ptr, align 8
  %19 = alloca ptr, align 8
  %20 = alloca i32, align 4
  %21 = alloca [9 x i32], align 16
  store ptr %0, ptr %6, align 8, !tbaa !3
  store ptr %1, ptr %7, align 8, !tbaa !8
  store ptr %2, ptr %8, align 8, !tbaa !9
  store ptr %3, ptr %9, align 8, !tbaa !11
  store i32 %4, ptr %10, align 4, !tbaa !13
  call void @llvm.lifetime.start.p0(i64 8, ptr %11) #2
  call void @llvm.lifetime.start.p0(i64 8, ptr %12) #2
  call void @llvm.lifetime.start.p0(i64 8, ptr %13) #2
  call void @llvm.lifetime.start.p0(i64 8, ptr %14) #2
  call void @llvm.lifetime.start.p0(i64 8, ptr %15) #2
  call void @llvm.lifetime.start.p0(i64 8, ptr %16) #2
  call void @llvm.lifetime.start.p0(i64 8, ptr %17) #2
  call void @llvm.lifetime.start.p0(i64 8, ptr %18) #2
  call void @llvm.lifetime.start.p0(i64 8, ptr %19) #2
  %22 = load ptr, ptr %6, align 8, !tbaa !3
  %23 = getelementptr inbounds nuw %struct.jpeg_decompress_struct, ptr %22, i32 0, i32 65
  %24 = load ptr, ptr %23, align 8, !tbaa !15
  %25 = getelementptr inbounds i8, ptr %24, i64 128
  store ptr %25, ptr %19, align 8, !tbaa !37
  call void @llvm.lifetime.start.p0(i64 4, ptr %20) #2
  call void @llvm.lifetime.start.p0(i64 36, ptr %21) #2
  %26 = load ptr, ptr %8, align 8, !tbaa !9
  store ptr %26, ptr %15, align 8, !tbaa !9
  %27 = load ptr, ptr %7, align 8, !tbaa !8
  %28 = getelementptr inbounds nuw %struct.jpeg_component_info, ptr %27, i32 0, i32 20
  %29 = load ptr, ptr %28, align 8, !tbaa !38
  store ptr %29, ptr %16, align 8, !tbaa !9
  %30 = getelementptr inbounds [9 x i32], ptr %21, i64 0, i64 0
  store ptr %30, ptr %17, align 8, !tbaa !40
  store i32 0, ptr %20, align 4, !tbaa !13
  br label %31

31:                                               ; preds = %100, %5
  %32 = load i32, ptr %20, align 4, !tbaa !13
  %33 = icmp slt i32 %32, 3
  br i1 %33, label %34, label %109

34:                                               ; preds = %31
  %35 = load ptr, ptr %15, align 8, !tbaa !9
  %36 = getelementptr inbounds i16, ptr %35, i64 0
  %37 = load i16, ptr %36, align 2, !tbaa !41
  %38 = sext i16 %37 to i32
  %39 = load ptr, ptr %16, align 8, !tbaa !9
  %40 = getelementptr inbounds i16, ptr %39, i64 0
  %41 = load i16, ptr %40, align 2, !tbaa !41
  %42 = sext i16 %41 to i32
  %43 = mul nsw i32 %38, %42
  %44 = sext i32 %43 to i64
  store i64 %44, ptr %11, align 8, !tbaa !42
  %45 = load i64, ptr %11, align 8, !tbaa !42
  %46 = shl i64 %45, 13
  store i64 %46, ptr %11, align 8, !tbaa !42
  %47 = load i64, ptr %11, align 8, !tbaa !42
  %48 = add nsw i64 %47, 1024
  store i64 %48, ptr %11, align 8, !tbaa !42
  %49 = load ptr, ptr %15, align 8, !tbaa !9
  %50 = getelementptr inbounds i16, ptr %49, i64 16
  %51 = load i16, ptr %50, align 2, !tbaa !41
  %52 = sext i16 %51 to i32
  %53 = load ptr, ptr %16, align 8, !tbaa !9
  %54 = getelementptr inbounds i16, ptr %53, i64 16
  %55 = load i16, ptr %54, align 2, !tbaa !41
  %56 = sext i16 %55 to i32
  %57 = mul nsw i32 %52, %56
  %58 = sext i32 %57 to i64
  store i64 %58, ptr %12, align 8, !tbaa !42
  %59 = load i64, ptr %12, align 8, !tbaa !42
  %60 = mul nsw i64 %59, 5793
  store i64 %60, ptr %14, align 8, !tbaa !42
  %61 = load i64, ptr %11, align 8, !tbaa !42
  %62 = load i64, ptr %14, align 8, !tbaa !42
  %63 = add nsw i64 %61, %62
  store i64 %63, ptr %13, align 8, !tbaa !42
  %64 = load i64, ptr %11, align 8, !tbaa !42
  %65 = load i64, ptr %14, align 8, !tbaa !42
  %66 = sub nsw i64 %64, %65
  %67 = load i64, ptr %14, align 8, !tbaa !42
  %68 = sub nsw i64 %66, %67
  store i64 %68, ptr %12, align 8, !tbaa !42
  %69 = load ptr, ptr %15, align 8, !tbaa !9
  %70 = getelementptr inbounds i16, ptr %69, i64 8
  %71 = load i16, ptr %70, align 2, !tbaa !41
  %72 = sext i16 %71 to i32
  %73 = load ptr, ptr %16, align 8, !tbaa !9
  %74 = getelementptr inbounds i16, ptr %73, i64 8
  %75 = load i16, ptr %74, align 2, !tbaa !41
  %76 = sext i16 %75 to i32
  %77 = mul nsw i32 %72, %76
  %78 = sext i32 %77 to i64
  store i64 %78, ptr %14, align 8, !tbaa !42
  %79 = load i64, ptr %14, align 8, !tbaa !42
  %80 = mul nsw i64 %79, 10033
  store i64 %80, ptr %11, align 8, !tbaa !42
  %81 = load i64, ptr %13, align 8, !tbaa !42
  %82 = load i64, ptr %11, align 8, !tbaa !42
  %83 = add nsw i64 %81, %82
  %84 = ashr i64 %83, 11
  %85 = trunc i64 %84 to i32
  %86 = load ptr, ptr %17, align 8, !tbaa !40
  %87 = getelementptr inbounds i32, ptr %86, i64 0
  store i32 %85, ptr %87, align 4, !tbaa !13
  %88 = load i64, ptr %13, align 8, !tbaa !42
  %89 = load i64, ptr %11, align 8, !tbaa !42
  %90 = sub nsw i64 %88, %89
  %91 = ashr i64 %90, 11
  %92 = trunc i64 %91 to i32
  %93 = load ptr, ptr %17, align 8, !tbaa !40
  %94 = getelementptr inbounds i32, ptr %93, i64 6
  store i32 %92, ptr %94, align 4, !tbaa !13
  %95 = load i64, ptr %12, align 8, !tbaa !42
  %96 = ashr i64 %95, 11
  %97 = trunc i64 %96 to i32
  %98 = load ptr, ptr %17, align 8, !tbaa !40
  %99 = getelementptr inbounds i32, ptr %98, i64 3
  store i32 %97, ptr %99, align 4, !tbaa !13
  br label %100

100:                                              ; preds = %34
  %101 = load i32, ptr %20, align 4, !tbaa !13
  %102 = add nsw i32 %101, 1
  store i32 %102, ptr %20, align 4, !tbaa !13
  %103 = load ptr, ptr %15, align 8, !tbaa !9
  %104 = getelementptr inbounds nuw i16, ptr %103, i32 1
  store ptr %104, ptr %15, align 8, !tbaa !9
  %105 = load ptr, ptr %16, align 8, !tbaa !9
  %106 = getelementptr inbounds nuw i16, ptr %105, i32 1
  store ptr %106, ptr %16, align 8, !tbaa !9
  %107 = load ptr, ptr %17, align 8, !tbaa !40
  %108 = getelementptr inbounds nuw i32, ptr %107, i32 1
  store ptr %108, ptr %17, align 8, !tbaa !40
  br label %31, !llvm.loop !54

109:                                              ; preds = %31
  %110 = getelementptr inbounds [9 x i32], ptr %21, i64 0, i64 0
  store ptr %110, ptr %17, align 8, !tbaa !40
  store i32 0, ptr %20, align 4, !tbaa !13
  br label %111

111:                                              ; preds = %186, %109
  %112 = load i32, ptr %20, align 4, !tbaa !13
  %113 = icmp slt i32 %112, 3
  br i1 %113, label %114, label %189

114:                                              ; preds = %111
  %115 = load ptr, ptr %9, align 8, !tbaa !11
  %116 = load i32, ptr %20, align 4, !tbaa !13
  %117 = sext i32 %116 to i64
  %118 = getelementptr inbounds ptr, ptr %115, i64 %117
  %119 = load ptr, ptr %118, align 8, !tbaa !37
  %120 = load i32, ptr %10, align 4, !tbaa !13
  %121 = zext i32 %120 to i64
  %122 = getelementptr inbounds nuw i8, ptr %119, i64 %121
  store ptr %122, ptr %18, align 8, !tbaa !37
  %123 = load ptr, ptr %17, align 8, !tbaa !40
  %124 = getelementptr inbounds i32, ptr %123, i64 0
  %125 = load i32, ptr %124, align 4, !tbaa !13
  %126 = sext i32 %125 to i64
  %127 = add nsw i64 %126, 16
  store i64 %127, ptr %11, align 8, !tbaa !42
  %128 = load i64, ptr %11, align 8, !tbaa !42
  %129 = shl i64 %128, 13
  store i64 %129, ptr %11, align 8, !tbaa !42
  %130 = load ptr, ptr %17, align 8, !tbaa !40
  %131 = getelementptr inbounds i32, ptr %130, i64 2
  %132 = load i32, ptr %131, align 4, !tbaa !13
  %133 = sext i32 %132 to i64
  store i64 %133, ptr %12, align 8, !tbaa !42
  %134 = load i64, ptr %12, align 8, !tbaa !42
  %135 = mul nsw i64 %134, 5793
  store i64 %135, ptr %14, align 8, !tbaa !42
  %136 = load i64, ptr %11, align 8, !tbaa !42
  %137 = load i64, ptr %14, align 8, !tbaa !42
  %138 = add nsw i64 %136, %137
  store i64 %138, ptr %13, align 8, !tbaa !42
  %139 = load i64, ptr %11, align 8, !tbaa !42
  %140 = load i64, ptr %14, align 8, !tbaa !42
  %141 = sub nsw i64 %139, %140
  %142 = load i64, ptr %14, align 8, !tbaa !42
  %143 = sub nsw i64 %141, %142
  store i64 %143, ptr %12, align 8, !tbaa !42
  %144 = load ptr, ptr %17, align 8, !tbaa !40
  %145 = getelementptr inbounds i32, ptr %144, i64 1
  %146 = load i32, ptr %145, align 4, !tbaa !13
  %147 = sext i32 %146 to i64
  store i64 %147, ptr %14, align 8, !tbaa !42
  %148 = load i64, ptr %14, align 8, !tbaa !42
  %149 = mul nsw i64 %148, 10033
  store i64 %149, ptr %11, align 8, !tbaa !42
  %150 = load ptr, ptr %19, align 8, !tbaa !37
  %151 = load i64, ptr %13, align 8, !tbaa !42
  %152 = load i64, ptr %11, align 8, !tbaa !42
  %153 = add nsw i64 %151, %152
  %154 = ashr i64 %153, 18
  %155 = trunc i64 %154 to i32
  %156 = and i32 %155, 1023
  %157 = sext i32 %156 to i64
  %158 = getelementptr inbounds i8, ptr %150, i64 %157
  %159 = load i8, ptr %158, align 1, !tbaa !46
  %160 = load ptr, ptr %18, align 8, !tbaa !37
  %161 = getelementptr inbounds i8, ptr %160, i64 0
  store i8 %159, ptr %161, align 1, !tbaa !46
  %162 = load ptr, ptr %19, align 8, !tbaa !37
  %163 = load i64, ptr %13, align 8, !tbaa !42
  %164 = load i64, ptr %11, align 8, !tbaa !42
  %165 = sub nsw i64 %163, %164
  %166 = ashr i64 %165, 18
  %167 = trunc i64 %166 to i32
  %168 = and i32 %167, 1023
  %169 = sext i32 %168 to i64
  %170 = getelementptr inbounds i8, ptr %162, i64 %169
  %171 = load i8, ptr %170, align 1, !tbaa !46
  %172 = load ptr, ptr %18, align 8, !tbaa !37
  %173 = getelementptr inbounds i8, ptr %172, i64 2
  store i8 %171, ptr %173, align 1, !tbaa !46
  %174 = load ptr, ptr %19, align 8, !tbaa !37
  %175 = load i64, ptr %12, align 8, !tbaa !42
  %176 = ashr i64 %175, 18
  %177 = trunc i64 %176 to i32
  %178 = and i32 %177, 1023
  %179 = sext i32 %178 to i64
  %180 = getelementptr inbounds i8, ptr %174, i64 %179
  %181 = load i8, ptr %180, align 1, !tbaa !46
  %182 = load ptr, ptr %18, align 8, !tbaa !37
  %183 = getelementptr inbounds i8, ptr %182, i64 1
  store i8 %181, ptr %183, align 1, !tbaa !46
  %184 = load ptr, ptr %17, align 8, !tbaa !40
  %185 = getelementptr inbounds i32, ptr %184, i64 3
  store ptr %185, ptr %17, align 8, !tbaa !40
  br label %186

186:                                              ; preds = %114
  %187 = load i32, ptr %20, align 4, !tbaa !13
  %188 = add nsw i32 %187, 1
  store i32 %188, ptr %20, align 4, !tbaa !13
  br label %111, !llvm.loop !55

189:                                              ; preds = %111
  call void @llvm.lifetime.end.p0(i64 36, ptr %21) #2
  call void @llvm.lifetime.end.p0(i64 4, ptr %20) #2
  call void @llvm.lifetime.end.p0(i64 8, ptr %19) #2
  call void @llvm.lifetime.end.p0(i64 8, ptr %18) #2
  call void @llvm.lifetime.end.p0(i64 8, ptr %17) #2
  call void @llvm.lifetime.end.p0(i64 8, ptr %16) #2
  call void @llvm.lifetime.end.p0(i64 8, ptr %15) #2
  call void @llvm.lifetime.end.p0(i64 8, ptr %14) #2
  call void @llvm.lifetime.end.p0(i64 8, ptr %13) #2
  call void @llvm.lifetime.end.p0(i64 8, ptr %12) #2
  call void @llvm.lifetime.end.p0(i64 8, ptr %11) #2
  ret void
}