; Function Attrs: nofree norecurse nosync nounwind memory(readwrite, inaccessiblemem: none) uwtable
define void @jpeg_idct_3x3(ptr noundef readonly captures(none) %0, ptr noundef readonly captures(none) %1, ptr noundef readonly captures(none) %2, ptr noundef readonly captures(none) %3, i32 noundef %4) local_unnamed_addr #0 {
  %6 = alloca [9 x i32], align 16
  %7 = getelementptr inbounds nuw i8, ptr %0, i64 424
  %8 = load ptr, ptr %7, align 8, !tbaa !3
  call void @llvm.lifetime.start.p0(i64 36, ptr nonnull %6) #2
  %9 = getelementptr inbounds nuw i8, ptr %1, i64 88
  %10 = load ptr, ptr %9, align 8, !tbaa !30
  br label %13

.preheader:                                       ; preds = %13
  %11 = getelementptr inbounds nuw i8, ptr %8, i64 128
  %12 = zext i32 %4 to i64
  br label %53

13:                                               ; preds = %5, %13
  %.066 = phi i32 [ 0, %5 ], [ %49, %13 ]
  %.05865 = phi ptr [ %6, %5 ], [ %52, %13 ]
  %.06064 = phi ptr [ %10, %5 ], [ %51, %13 ]
  %.06163 = phi ptr [ %2, %5 ], [ %50, %13 ]
  %14 = load i16, ptr %.06163, align 2, !tbaa !32
  %15 = sext i16 %14 to i64
  %16 = load i16, ptr %.06064, align 2, !tbaa !32
  %17 = sext i16 %16 to i64
  %18 = shl nsw i64 %15, 13
  %19 = mul nsw i64 %18, %17
  %20 = or disjoint i64 %19, 1024
  %21 = getelementptr inbounds nuw i8, ptr %.06163, i64 32
  %22 = load i16, ptr %21, align 2, !tbaa !32
  %23 = sext i16 %22 to i64
  %24 = getelementptr inbounds nuw i8, ptr %.06064, i64 32
  %25 = load i16, ptr %24, align 2, !tbaa !32
  %26 = sext i16 %25 to i64
  %27 = mul nsw i64 %26, %23
  %28 = mul nsw i64 %27, 5793
  %29 = add nsw i64 %28, %20
  %.neg62 = mul i64 %27, 8796093010622
  %30 = add i64 %.neg62, %20
  %31 = getelementptr inbounds nuw i8, ptr %.06163, i64 16
  %32 = load i16, ptr %31, align 2, !tbaa !32
  %33 = sext i16 %32 to i64
  %34 = getelementptr inbounds nuw i8, ptr %.06064, i64 16
  %35 = load i16, ptr %34, align 2, !tbaa !32
  %36 = sext i16 %35 to i64
  %37 = mul nsw i64 %33, 10033
  %38 = mul nsw i64 %37, %36
  %39 = add nsw i64 %29, %38
  %40 = lshr i64 %39, 11
  %41 = trunc i64 %40 to i32
  store i32 %41, ptr %.05865, align 4, !tbaa !33
  %42 = sub nsw i64 %29, %38
  %43 = lshr i64 %42, 11
  %44 = trunc i64 %43 to i32
  %45 = getelementptr inbounds nuw i8, ptr %.05865, i64 24
  store i32 %44, ptr %45, align 4, !tbaa !33
  %46 = lshr i64 %30, 11
  %47 = trunc i64 %46 to i32
  %48 = getelementptr inbounds nuw i8, ptr %.05865, i64 12
  store i32 %47, ptr %48, align 4, !tbaa !33
  %49 = add nuw nsw i32 %.066, 1
  %50 = getelementptr inbounds nuw i8, ptr %.06163, i64 2
  %51 = getelementptr inbounds nuw i8, ptr %.06064, i64 2
  %52 = getelementptr inbounds nuw i8, ptr %.05865, i64 4
  %exitcond.not = icmp eq i32 %49, 3
  br i1 %exitcond.not, label %.preheader, label %13, !llvm.loop !45

53:                                               ; preds = %.preheader, %53
  %indvars.iv = phi i64 [ 0, %.preheader ], [ %indvars.iv.next, %53 ]
  %.15967 = phi ptr [ %6, %.preheader ], [ %87, %53 ]
  %54 = getelementptr inbounds nuw ptr, ptr %3, i64 %indvars.iv
  %55 = load ptr, ptr %54, align 8, !tbaa !36
  %56 = getelementptr inbounds nuw i8, ptr %55, i64 %12
  %57 = load i32, ptr %.15967, align 4, !tbaa !33
  %58 = sext i32 %57 to i64
  %59 = shl nsw i64 %58, 13
  %60 = add nsw i64 %59, 131072
  %61 = getelementptr inbounds nuw i8, ptr %.15967, i64 8
  %62 = load i32, ptr %61, align 4, !tbaa !33
  %63 = zext i32 %62 to i64
  %64 = mul nuw nsw i64 %63, 5793
  %65 = add nsw i64 %60, %64
  %.neg = mul nuw nsw i64 %63, 268423870
  %66 = add nsw i64 %.neg, %60
  %67 = getelementptr inbounds nuw i8, ptr %.15967, i64 4
  %68 = load i32, ptr %67, align 4, !tbaa !33
  %69 = zext i32 %68 to i64
  %70 = mul nuw nsw i64 %69, 10033
  %71 = add nsw i64 %65, %70
  %72 = lshr i64 %71, 18
  %73 = and i64 %72, 1023
  %74 = getelementptr inbounds nuw i8, ptr %11, i64 %73
  %75 = load i8, ptr %74, align 1, !tbaa !37
  store i8 %75, ptr %56, align 1, !tbaa !37
  %76 = sub nsw i64 %65, %70
  %77 = lshr i64 %76, 18
  %78 = and i64 %77, 1023
  %79 = getelementptr inbounds nuw i8, ptr %11, i64 %78
  %80 = load i8, ptr %79, align 1, !tbaa !37
  %81 = getelementptr inbounds nuw i8, ptr %56, i64 2
  store i8 %80, ptr %81, align 1, !tbaa !37
  %82 = lshr i64 %66, 18
  %83 = and i64 %82, 1023
  %84 = getelementptr inbounds nuw i8, ptr %11, i64 %83
  %85 = load i8, ptr %84, align 1, !tbaa !37
  %86 = getelementptr inbounds nuw i8, ptr %56, i64 1
  store i8 %85, ptr %86, align 1, !tbaa !37
  %87 = getelementptr inbounds nuw i8, ptr %.15967, i64 12
  %indvars.iv.next = add nuw nsw i64 %indvars.iv, 1
  %exitcond70.not = icmp eq i64 %indvars.iv.next, 3
  br i1 %exitcond70.not, label %88, label %53, !llvm.loop !46

88:                                               ; preds = %53
  call void @llvm.lifetime.end.p0(i64 36, ptr nonnull %6) #2
  ret void
}